target datalayout = "e-m:e-p270:32:32-p271:32:32-p272:64:64-i64:64-i128:128-f80:128-n8:16:32:64-S128"
target triple = "x86_64-pc-linux-gnu"

%"class.casadi::SharedObject" = type { ptr }
%"class.casadi::Slice" = type { i64, i64, i64 }
%"class.casadi::GetNonzeros" = type { %"class.casadi::MXNode" }
%"class.casadi::MXNode" = type { %"class.casadi::SharedObjectInternal", i64, %"class.std::vector.3", %"class.casadi::Sparsity" }
%"class.casadi::SharedObjectInternal" = type { ptr, i64, ptr }
%"class.std::vector.3" = type { %"struct.std::_Vector_base.4" }
%"struct.std::_Vector_base.4" = type { %"struct.std::_Vector_base<casadi::MX, std::allocator<casadi::MX>>::_Vector_impl" }
%"struct.std::_Vector_base<casadi::MX, std::allocator<casadi::MX>>::_Vector_impl" = type { %"struct.std::_Vector_base<casadi::MX, std::allocator<casadi::MX>>::_Vector_impl_data" }
%"struct.std::_Vector_base<casadi::MX, std::allocator<casadi::MX>>::_Vector_impl_data" = type { ptr, ptr, ptr }
%"class.casadi::Sparsity" = type { %"class.casadi::SharedObject" }
%"class.casadi::GetNonzerosSlice" = type { %"class.casadi::GetNonzeros", %"class.casadi::Slice" }
%"class.casadi::SXElem" = type { ptr }

; Function Attrs: mustprogress uwtable
define linkonce_odr noundef i32 @_ZNK6casadi16GetNonzerosSlice8eval_genINS_6SXElemEEEiPKPKT_PKPS3_PxS8_(ptr noundef nonnull align 8 dereferenceable(88) %0, ptr noundef %1, ptr noundef %2, ptr noundef %3, ptr noundef %4) #4 comdat align 2 {
  %6 = alloca ptr, align 8
  %7 = alloca ptr, align 8
  %8 = alloca ptr, align 8
  %9 = alloca ptr, align 8
  %10 = alloca ptr, align 8
  %11 = alloca ptr, align 8
  %12 = alloca ptr, align 8
  %13 = alloca ptr, align 8
  store ptr %0, ptr %6, align 8
  store ptr %1, ptr %7, align 8
  store ptr %2, ptr %8, align 8
  store ptr %3, ptr %9, align 8
  store ptr %4, ptr %10, align 8
  %14 = load ptr, ptr %6, align 8
  %15 = load ptr, ptr %7, align 8
  %16 = getelementptr inbounds ptr, ptr %15, i64 0
  %17 = load ptr, ptr %16, align 8
  %18 = getelementptr inbounds %"class.casadi::GetNonzerosSlice", ptr %14, i32 0, i32 1
  %19 = getelementptr inbounds %"class.casadi::Slice", ptr %18, i32 0, i32 0
  %20 = load i64, ptr %19, align 8
  %21 = getelementptr inbounds %"class.casadi::SXElem", ptr %17, i64 %20
  store ptr %21, ptr %11, align 8
  %22 = load ptr, ptr %7, align 8
  %23 = getelementptr inbounds ptr, ptr %22, i64 0
  %24 = load ptr, ptr %23, align 8
  %25 = getelementptr inbounds %"class.casadi::GetNonzerosSlice", ptr %14, i32 0, i32 1
  %26 = getelementptr inbounds %"class.casadi::Slice", ptr %25, i32 0, i32 1
  %27 = load i64, ptr %26, align 8
  %28 = getelementptr inbounds %"class.casadi::SXElem", ptr %24, i64 %27
  store ptr %28, ptr %12, align 8
  %29 = load ptr, ptr %8, align 8
  %30 = getelementptr inbounds ptr, ptr %29, i64 0
  %31 = load ptr, ptr %30, align 8
  store ptr %31, ptr %13, align 8
  br label %32

32:                                               ; preds = %41, %5
  %33 = load ptr, ptr %11, align 8
  %34 = load ptr, ptr %12, align 8
  %35 = icmp ne ptr %33, %34
  br i1 %35, label %36, label %47

36:                                               ; preds = %32
  %37 = load ptr, ptr %11, align 8
  %38 = load ptr, ptr %13, align 8
  %39 = getelementptr inbounds %"class.casadi::SXElem", ptr %38, i32 1
  store ptr %39, ptr %13, align 8
  %40 = call noundef nonnull align 8 dereferenceable(8) ptr @_ZN6casadi6SXElemaSERKS0_(ptr noundef nonnull align 8 dereferenceable(8) %38, ptr noundef nonnull align 8 dereferenceable(8) %37)
  br label %41

41:                                               ; preds = %36
  %42 = getelementptr inbounds %"class.casadi::GetNonzerosSlice", ptr %14, i32 0, i32 1
  %43 = getelementptr inbounds %"class.casadi::Slice", ptr %42, i32 0, i32 2
  %44 = load i64, ptr %43, align 8
  %45 = load ptr, ptr %11, align 8
  %46 = getelementptr inbounds %"class.casadi::SXElem", ptr %45, i64 %44
  store ptr %46, ptr %11, align 8
  br label %32, !llvm.loop !9

47:                                               ; preds = %32
  ret i32 0
}

; Function Attrs: mustprogress uwtable
define noundef i32 @_ZNK6casadi16GetNonzerosSlice7eval_sxEPPKNS_6SXElemEPPS1_PxS5_(ptr noundef nonnull align 8 dereferenceable(88) %0, ptr noundef %1, ptr noundef %2, ptr noundef %3, ptr noundef %4) unnamed_addr #4 align 2 {
  %6 = alloca ptr, align 8
  %7 = alloca ptr, align 8
  %8 = alloca ptr, align 8
  %9 = alloca ptr, align 8
  %10 = alloca ptr, align 8
  store ptr %0, ptr %6, align 8
  store ptr %1, ptr %7, align 8
  store ptr %2, ptr %8, align 8
  store ptr %3, ptr %9, align 8
  store ptr %4, ptr %10, align 8
  %11 = load ptr, ptr %6, align 8
  %12 = load ptr, ptr %7, align 8
  %13 = load ptr, ptr %8, align 8
  %14 = load ptr, ptr %9, align 8
  %15 = load ptr, ptr %10, align 8
  %16 = call noundef i32 @_ZNK6casadi16GetNonzerosSlice8eval_genINS_6SXElemEEEiPKPKT_PKPS3_PxS8_(ptr noundef nonnull align 8 dereferenceable(88) %11, ptr noundef %12, ptr noundef %13, ptr noundef %14, ptr noundef %15)
  ret i32 %16
}