; Function Attrs: mustprogress uwtable
define noundef i32 @_ZNK6casadi16GetNonzerosSlice7eval_sxEPPKNS_6SXElemEPPS1_PxS5_(ptr nocapture noundef nonnull readonly align 8 dereferenceable(88) %0, ptr nocapture noundef readonly %1, ptr nocapture noundef readonly %2, ptr nocapture readnone %3, ptr nocapture readnone %4) unnamed_addr #3 align 2 {
  %6 = load ptr, ptr %1, align 8
  %7 = getelementptr inbounds i8, ptr %0, i64 64
  %8 = load i64, ptr %7, align 8
  %9 = getelementptr inbounds i8, ptr %0, i64 72
  %10 = load i64, ptr %9, align 8
  %11 = getelementptr inbounds %"class.casadi::SXElem", ptr %6, i64 %10
  %.not10.i = icmp eq i64 %8, %10
  br i1 %.not10.i, label %_ZNK6casadi16GetNonzerosSlice8eval_genINS_6SXElemEEEiPKPKT_PKPS3_PxS8_.exit, label %.lr.ph.i

.lr.ph.i:                                         ; preds = %5
  %12 = getelementptr inbounds %"class.casadi::SXElem", ptr %6, i64 %8
  %13 = load ptr, ptr %2, align 8
  %14 = getelementptr inbounds i8, ptr %0, i64 80
  br label %15

15:                                               ; preds = %15, %.lr.ph.i
  %.012.i = phi ptr [ %13, %.lr.ph.i ], [ %16, %15 ]
  %.0911.i = phi ptr [ %12, %.lr.ph.i ], [ %19, %15 ]
  %16 = getelementptr inbounds i8, ptr %.012.i, i64 8
  %17 = tail call noundef nonnull align 8 dereferenceable(8) ptr @_ZN6casadi6SXElemaSERKS0_(ptr noundef nonnull align 8 dereferenceable(8) %.012.i, ptr noundef nonnull align 8 dereferenceable(8) %.0911.i)
  %18 = load i64, ptr %14, align 8
  %19 = getelementptr inbounds %"class.casadi::SXElem", ptr %.0911.i, i64 %18
  %.not.i = icmp eq ptr %19, %11
  br i1 %.not.i, label %_ZNK6casadi16GetNonzerosSlice8eval_genINS_6SXElemEEEiPKPKT_PKPS3_PxS8_.exit, label %15, !llvm.loop !12

_ZNK6casadi16GetNonzerosSlice8eval_genINS_6SXElemEEEiPKPKT_PKPS3_PxS8_.exit: ; preds = %15, %5
  ret i32 0
}